; Function Attrs: mustprogress uwtable
define noundef zeroext i1 @_ZNK32pxrInternal_v0_24__pxrReserved__8TsSpline23IsSegmentValueMonotonicEdd(ptr nocapture noundef nonnull readonly align 8 dereferenceable(16) %0, double noundef %1, double noundef %2) local_unnamed_addr #3 align 2 {
  %4 = alloca %"class.pxrInternal_v0_24__pxrReserved__::TfCallContext", align 8
  %5 = alloca %"class.pxrInternal_v0_24__pxrReserved__::TfCallContext", align 8
  %6 = load ptr, ptr %0, align 8
  %7 = tail call noundef nonnull align 8 dereferenceable(24) ptr @_ZNK32pxrInternal_v0_24__pxrReserved__18TsSpline_KeyFrames12GetKeyFramesEv(ptr noundef nonnull align 8 dereferenceable(136) %6)
  %8 = tail call ptr @_ZNK32pxrInternal_v0_24__pxrReserved__13TsKeyFrameMap11lower_boundEd(ptr noundef nonnull align 8 dereferenceable(24) %7, double noundef %1)
  %9 = getelementptr inbounds nuw i8, ptr %7, i64 8
  %10 = load ptr, ptr %9, align 8
  %.not.i = icmp eq ptr %8, %10
  br i1 %.not.i, label %_ZNK32pxrInternal_v0_24__pxrReserved__13TsKeyFrameMap4findERKd.exit.thread, label %11

11:                                               ; preds = %3
  %12 = getelementptr inbounds nuw i8, ptr %8, i64 8
  %13 = load double, ptr %12, align 8
  %14 = fcmp une double %13, %1
  br i1 %14, label %_ZNK32pxrInternal_v0_24__pxrReserved__13TsKeyFrameMap4findERKd.exit.thread, label %19

_ZNK32pxrInternal_v0_24__pxrReserved__13TsKeyFrameMap4findERKd.exit.thread: ; preds = %11, %3
  store ptr @.str.8, ptr %4, align 8
  %15 = getelementptr inbounds nuw i8, ptr %4, i64 8
  store ptr @__func__._ZNK32pxrInternal_v0_24__pxrReserved__8TsSpline23IsSegmentValueMonotonicEdd, ptr %15, align 8
  %16 = getelementptr inbounds nuw i8, ptr %4, i64 16
  store i64 702, ptr %16, align 8
  %17 = getelementptr inbounds nuw i8, ptr %4, i64 24
  store ptr @__PRETTY_FUNCTION__._ZNK32pxrInternal_v0_24__pxrReserved__8TsSpline23IsSegmentValueMonotonicEdd, ptr %17, align 8
  %18 = getelementptr inbounds nuw i8, ptr %4, i64 32
  store i8 0, ptr %18, align 8
  call void (ptr, i32, ptr, ...) @_ZN32pxrInternal_v0_24__pxrReserved__18Tf_PostErrorHelperERKNS_13TfCallContextENS_16TfDiagnosticTypeEPKcz(ptr noundef nonnull align 8 dereferenceable(33) %4, i32 noundef 1, ptr noundef nonnull @.str.13, double noundef %1)
  br label %32

19:                                               ; preds = %11
  %20 = tail call ptr @_ZNK32pxrInternal_v0_24__pxrReserved__13TsKeyFrameMap11lower_boundEd(ptr noundef nonnull align 8 dereferenceable(24) %7, double noundef %2)
  %21 = load ptr, ptr %9, align 8
  %.not.i6 = icmp eq ptr %20, %21
  br i1 %.not.i6, label %_ZNK32pxrInternal_v0_24__pxrReserved__13TsKeyFrameMap4findERKd.exit9.thread, label %22

22:                                               ; preds = %19
  %23 = getelementptr inbounds nuw i8, ptr %20, i64 8
  %24 = load double, ptr %23, align 8
  %25 = fcmp une double %24, %2
  br i1 %25, label %_ZNK32pxrInternal_v0_24__pxrReserved__13TsKeyFrameMap4findERKd.exit9.thread, label %30

_ZNK32pxrInternal_v0_24__pxrReserved__13TsKeyFrameMap4findERKd.exit9.thread: ; preds = %22, %19
  store ptr @.str.8, ptr %5, align 8
  %26 = getelementptr inbounds nuw i8, ptr %5, i64 8
  store ptr @__func__._ZNK32pxrInternal_v0_24__pxrReserved__8TsSpline23IsSegmentValueMonotonicEdd, ptr %26, align 8
  %27 = getelementptr inbounds nuw i8, ptr %5, i64 16
  store i64 709, ptr %27, align 8
  %28 = getelementptr inbounds nuw i8, ptr %5, i64 24
  store ptr @__PRETTY_FUNCTION__._ZNK32pxrInternal_v0_24__pxrReserved__8TsSpline23IsSegmentValueMonotonicEdd, ptr %28, align 8
  %29 = getelementptr inbounds nuw i8, ptr %5, i64 32
  store i8 0, ptr %29, align 8
  call void (ptr, i32, ptr, ...) @_ZN32pxrInternal_v0_24__pxrReserved__18Tf_PostErrorHelperERKNS_13TfCallContextENS_16TfDiagnosticTypeEPKcz(ptr noundef nonnull align 8 dereferenceable(33) %5, i32 noundef 1, ptr noundef nonnull @.str.14, double noundef %2)
  br label %32

30:                                               ; preds = %22
  %31 = tail call noundef zeroext i1 @_ZN32pxrInternal_v0_24__pxrReserved__26Ts_IsSegmentValueMonotonicERKNS_10TsKeyFrameES2_(ptr noundef nonnull align 8 dereferenceable(72) %8, ptr noundef nonnull align 8 dereferenceable(72) %20)
  br label %32

32:                                               ; preds = %30, %_ZNK32pxrInternal_v0_24__pxrReserved__13TsKeyFrameMap4findERKd.exit9.thread, %_ZNK32pxrInternal_v0_24__pxrReserved__13TsKeyFrameMap4findERKd.exit.thread
  %.0 = phi i1 [ false, %_ZNK32pxrInternal_v0_24__pxrReserved__13TsKeyFrameMap4findERKd.exit.thread ], [ false, %_ZNK32pxrInternal_v0_24__pxrReserved__13TsKeyFrameMap4findERKd.exit9.thread ], [ %31, %30 ]
  ret i1 %.0
}